target datalayout = "e-m:e-p270:32:32-p271:32:32-p272:64:64-i64:64-i128:128-f80:128-n8:16:32:64-S128"
target triple = "x86_64-pc-linux-gnu"

%"struct.(anonymous namespace)::VariantListEntry" = type { ptr, ptr }
%"struct.(anonymous namespace)::ExtensionListEntry" = type { ptr, ptr, ptr }
%"class.icu_77::LocalPointerBase.4" = type { ptr }
%"struct.(anonymous namespace)::ULanguageTag" = type { ptr, ptr, [3 x ptr], ptr, ptr, ptr, ptr, ptr, ptr }

; Function Attrs: mustprogress nounwind uwtable
define internal void @_ZN6icu_7716LocalPointerBaseIN12_GLOBAL__N_112ULanguageTagEED2Ev(ptr noundef nonnull align 8 dereferenceable(8) %0) unnamed_addr #0 align 2 {
  %2 = alloca ptr, align 8
  store ptr %0, ptr %2, align 8, !tbaa !118
  ret void
}

; Function Attrs: mustprogress uwtable
define internal void @_ZN12_GLOBAL__N_111ultag_closeEPNS_12ULanguageTagE(ptr noundef %0) #1 {
  %2 = alloca ptr, align 8
  %3 = alloca ptr, align 8
  %4 = alloca ptr, align 8
  %5 = alloca ptr, align 8
  %6 = alloca ptr, align 8
  store ptr %0, ptr %2, align 8, !tbaa !115
  %7 = load ptr, ptr %2, align 8, !tbaa !115
  %8 = icmp eq ptr %7, null
  br i1 %8, label %9, label %10

9:                                                ; preds = %1
  br label %59

10:                                               ; preds = %1
  %11 = load ptr, ptr %2, align 8, !tbaa !115
  %12 = getelementptr inbounds nuw %"struct.(anonymous namespace)::ULanguageTag", ptr %11, i32 0, i32 0
  %13 = load ptr, ptr %12, align 8, !tbaa !99
  call void @uprv_free_77(ptr noundef %13)
  %14 = load ptr, ptr %2, align 8, !tbaa !115
  %15 = getelementptr inbounds nuw %"struct.(anonymous namespace)::ULanguageTag", ptr %14, i32 0, i32 5
  %16 = load ptr, ptr %15, align 8, !tbaa !95
  %17 = icmp ne ptr %16, null
  br i1 %17, label %18, label %35

18:                                               ; preds = %10
  call void @llvm.lifetime.start.p0(i64 8, ptr %3) #12
  %19 = load ptr, ptr %2, align 8, !tbaa !115
  %20 = getelementptr inbounds nuw %"struct.(anonymous namespace)::ULanguageTag", ptr %19, i32 0, i32 5
  %21 = load ptr, ptr %20, align 8, !tbaa !95
  store ptr %21, ptr %3, align 8, !tbaa !65
  br label %22

22:                                               ; preds = %32, %18
  %23 = load ptr, ptr %3, align 8, !tbaa !65
  %24 = icmp ne ptr %23, null
  br i1 %24, label %25, label %34

25:                                               ; preds = %22
  call void @llvm.lifetime.start.p0(i64 8, ptr %4) #12
  %26 = load ptr, ptr %3, align 8, !tbaa !65
  %27 = getelementptr inbounds nuw %"struct.(anonymous namespace)::VariantListEntry", ptr %26, i32 0, i32 1
  %28 = load ptr, ptr %27, align 8, !tbaa !71
  store ptr %28, ptr %4, align 8, !tbaa !65
  %29 = load ptr, ptr %3, align 8, !tbaa !65
  %30 = icmp eq ptr %29, null
  br i1 %30, label %32, label %31

31:                                               ; preds = %25
  call void @_ZN6icu_777UMemorydlEPv(ptr noundef %29) #12
  br label %32

32:                                               ; preds = %31, %25
  %33 = load ptr, ptr %4, align 8, !tbaa !65
  store ptr %33, ptr %3, align 8, !tbaa !65
  call void @llvm.lifetime.end.p0(i64 8, ptr %4) #12
  br label %22, !llvm.loop !208

34:                                               ; preds = %22
  call void @llvm.lifetime.end.p0(i64 8, ptr %3) #12
  br label %35

35:                                               ; preds = %34, %10
  %36 = load ptr, ptr %2, align 8, !tbaa !115
  %37 = getelementptr inbounds nuw %"struct.(anonymous namespace)::ULanguageTag", ptr %36, i32 0, i32 6
  %38 = load ptr, ptr %37, align 8, !tbaa !126
  %39 = icmp ne ptr %38, null
  br i1 %39, label %40, label %57

40:                                               ; preds = %35
  call void @llvm.lifetime.start.p0(i64 8, ptr %5) #12
  %41 = load ptr, ptr %2, align 8, !tbaa !115
  %42 = getelementptr inbounds nuw %"struct.(anonymous namespace)::ULanguageTag", ptr %41, i32 0, i32 6
  %43 = load ptr, ptr %42, align 8, !tbaa !126
  store ptr %43, ptr %5, align 8, !tbaa !74
  br label %44

44:                                               ; preds = %54, %40
  %45 = load ptr, ptr %5, align 8, !tbaa !74
  %46 = icmp ne ptr %45, null
  br i1 %46, label %47, label %56

47:                                               ; preds = %44
  call void @llvm.lifetime.start.p0(i64 8, ptr %6) #12
  %48 = load ptr, ptr %5, align 8, !tbaa !74
  %49 = getelementptr inbounds nuw %"struct.(anonymous namespace)::ExtensionListEntry", ptr %48, i32 0, i32 2
  %50 = load ptr, ptr %49, align 8, !tbaa !88
  store ptr %50, ptr %6, align 8, !tbaa !74
  %51 = load ptr, ptr %5, align 8, !tbaa !74
  %52 = icmp eq ptr %51, null
  br i1 %52, label %54, label %53

53:                                               ; preds = %47
  call void @_ZN6icu_777UMemorydlEPv(ptr noundef %51) #12
  br label %54

54:                                               ; preds = %53, %47
  %55 = load ptr, ptr %6, align 8, !tbaa !74
  store ptr %55, ptr %5, align 8, !tbaa !74
  call void @llvm.lifetime.end.p0(i64 8, ptr %6) #12
  br label %44, !llvm.loop !209

56:                                               ; preds = %44
  call void @llvm.lifetime.end.p0(i64 8, ptr %5) #12
  br label %57

57:                                               ; preds = %56, %35
  %58 = load ptr, ptr %2, align 8, !tbaa !115
  call void @uprv_free_77(ptr noundef %58)
  br label %59

59:                                               ; preds = %57, %9
  ret void
}

; Function Attrs: mustprogress nounwind uwtable
define internal void @_ZN6icu_778internal16LocalOpenPointerIN12_GLOBAL__N_112ULanguageTagEXadL_ZNS2_11ultag_closeEPS3_EEED2Ev(ptr noundef nonnull align 8 dereferenceable(8) %0) unnamed_addr #0 align 2 personality ptr @__gxx_personality_v0 {
  %2 = alloca ptr, align 8
  store ptr %0, ptr %2, align 8, !tbaa !113
  %3 = load ptr, ptr %2, align 8
  %4 = getelementptr inbounds nuw %"class.icu_77::LocalPointerBase.4", ptr %3, i32 0, i32 0
  %5 = load ptr, ptr %4, align 8, !tbaa !120
  %6 = icmp ne ptr %5, null
  br i1 %6, label %7, label %11

7:                                                ; preds = %1
  %8 = getelementptr inbounds nuw %"class.icu_77::LocalPointerBase.4", ptr %3, i32 0, i32 0
  %9 = load ptr, ptr %8, align 8, !tbaa !120
  invoke void @_ZN12_GLOBAL__N_111ultag_closeEPNS_12ULanguageTagE(ptr noundef %9)
          to label %10 unwind label %12

10:                                               ; preds = %7
  br label %11

11:                                               ; preds = %10, %1
  call void @_ZN6icu_7716LocalPointerBaseIN12_GLOBAL__N_112ULanguageTagEED2Ev(ptr noundef nonnull align 8 dereferenceable(8) %3) #12
  ret void

12:                                               ; preds = %7
  %13 = landingpad { ptr, i32 }
          catch ptr null
  %14 = extractvalue { ptr, i32 } %13, 0
  call void @__clang_call_terminate(ptr %14) #14
  unreachable
}