; Function Attrs: mustprogress nounwind uwtable
define internal fastcc void @_ZN6icu_778internal16LocalOpenPointerIN12_GLOBAL__N_112ULanguageTagEXadL_ZNS2_11ultag_closeEPS3_EEED2Ev(ptr %.0.val) unnamed_addr #0 align 2 personality ptr @__gxx_personality_v0 {
  %.not = icmp eq ptr %.0.val, null
  br i1 %.not, label %_ZN12_GLOBAL__N_111ultag_closeEPNS_12ULanguageTagE.exit, label %1

1:                                                ; preds = %0
  %2 = load ptr, ptr %.0.val, align 8, !tbaa !116
  invoke void @uprv_free_77(ptr noundef %2)
          to label %.noexc unwind label %11

.noexc:                                           ; preds = %1
  %3 = getelementptr inbounds nuw i8, ptr %.0.val, i64 56
  %4 = load ptr, ptr %3, align 8, !tbaa !126
  %.not.i = icmp eq ptr %4, null
  br i1 %.not.i, label %.loopexit23.i, label %.preheader22.i

.preheader22.i:                                   ; preds = %.noexc, %.preheader22.i
  %.024.i = phi ptr [ %6, %.preheader22.i ], [ %4, %.noexc ]
  %5 = getelementptr inbounds nuw i8, ptr %.024.i, i64 8
  %6 = load ptr, ptr %5, align 8, !tbaa !44
  tail call void @_ZN6icu_777UMemorydlEPv(ptr noundef nonnull %.024.i) #17
  %.not19.i = icmp eq ptr %6, null
  br i1 %.not19.i, label %.loopexit23.i, label %.preheader22.i, !llvm.loop !127

.loopexit23.i:                                    ; preds = %.preheader22.i, %.noexc
  %7 = getelementptr inbounds nuw i8, ptr %.0.val, i64 64
  %8 = load ptr, ptr %7, align 8, !tbaa !128
  %.not20.i = icmp eq ptr %8, null
  br i1 %.not20.i, label %.loopexit.i, label %.preheader.i

.preheader.i:                                     ; preds = %.loopexit23.i, %.preheader.i
  %.01525.i = phi ptr [ %10, %.preheader.i ], [ %8, %.loopexit23.i ]
  %9 = getelementptr inbounds nuw i8, ptr %.01525.i, i64 16
  %10 = load ptr, ptr %9, align 8, !tbaa !96
  tail call void @_ZN6icu_777UMemorydlEPv(ptr noundef nonnull %.01525.i) #17
  %.not21.i = icmp eq ptr %10, null
  br i1 %.not21.i, label %.loopexit.i, label %.preheader.i, !llvm.loop !129

.loopexit.i:                                      ; preds = %.preheader.i, %.loopexit23.i
  invoke void @uprv_free_77(ptr noundef nonnull %.0.val)
          to label %_ZN12_GLOBAL__N_111ultag_closeEPNS_12ULanguageTagE.exit unwind label %11

_ZN12_GLOBAL__N_111ultag_closeEPNS_12ULanguageTagE.exit: ; preds = %.loopexit.i, %0
  ret void

11:                                               ; preds = %.loopexit.i, %1
  %12 = landingpad { ptr, i32 }
          catch ptr null
  %13 = extractvalue { ptr, i32 } %12, 0
  tail call void @__clang_call_terminate(ptr %13) #19
  unreachable
}